target datalayout = "e-m:e-p270:32:32-p271:32:32-p272:64:64-i64:64-i128:128-f80:128-n8:16:32:64-S128"
target triple = "x86_64-pc-linux-gnu"

%class.InterpreterOopMap = type { ptr, i32, i32, i16, i32, [4 x i64] }

; Function Attrs: mustprogress nounwind uwtable
define linkonce_odr hidden noundef i64 @_ZNK17InterpreterOopMap14mask_word_sizeEv(ptr noundef nonnull align 8 dereferenceable(56) %0) #1 comdat align 2 {
  %2 = alloca ptr, align 8
  store ptr %0, ptr %2, align 8
  %3 = load ptr, ptr %2, align 8
  %4 = call noundef i32 @_ZNK17InterpreterOopMap9mask_sizeEv(ptr noundef nonnull align 8 dereferenceable(56) %3)
  %5 = add nsw i32 %4, 64
  %6 = sub nsw i32 %5, 1
  %7 = sdiv i32 %6, 64
  %8 = sext i32 %7 to i64
  ret i64 %8
}

; Function Attrs: mustprogress nounwind uwtable
define linkonce_odr hidden noundef i32 @_ZNK17InterpreterOopMap9mask_sizeEv(ptr noundef nonnull align 8 dereferenceable(56) %0) #1 comdat align 2 {
  %2 = alloca ptr, align 8
  store ptr %0, ptr %2, align 8
  %3 = load ptr, ptr %2, align 8
  %4 = getelementptr inbounds %class.InterpreterOopMap, ptr %3, i32 0, i32 1
  %5 = load i32, ptr %4, align 8
  ret i32 %5
}

; Function Attrs: mustprogress nounwind uwtable
define hidden void @_ZN16OopMapCacheEntry17allocate_bit_maskEv(ptr noundef nonnull align 8 dereferenceable(64) %0) #1 align 2 {
  %2 = alloca ptr, align 8
  store ptr %0, ptr %2, align 8
  %3 = load ptr, ptr %2, align 8
  %4 = call noundef i32 @_ZNK17InterpreterOopMap9mask_sizeEv(ptr noundef nonnull align 8 dereferenceable(56) %3)
  %5 = icmp sgt i32 %4, 256
  br i1 %5, label %6, label %13

6:                                                ; preds = %1
  %7 = call noundef i64 @_ZNK17InterpreterOopMap14mask_word_sizeEv(ptr noundef nonnull align 8 dereferenceable(56) %3)
  %8 = mul i64 %7, 8
  %9 = call noundef ptr @_Z12AllocateHeapm8MEMFLAGSN17AllocFailStrategy13AllocFailEnumE(i64 noundef %8, i8 noundef zeroext 1, i32 noundef 0)
  %10 = ptrtoint ptr %9 to i64
  %11 = getelementptr inbounds %class.InterpreterOopMap, ptr %3, i32 0, i32 5
  %12 = getelementptr inbounds [4 x i64], ptr %11, i64 0, i64 0
  store i64 %10, ptr %12, align 8
  br label %13

13:                                               ; preds = %6, %1
  ret void
}