; Function Attrs: mustprogress nounwind uwtable
define hidden void @_ZN16OopMapCacheEntry17allocate_bit_maskEv(ptr nocapture noundef nonnull align 8 dereferenceable(64) %0) local_unnamed_addr #0 align 2 {
  %2 = getelementptr inbounds i8, ptr %0, i64 8
  %3 = load i32, ptr %2, align 8
  %4 = icmp sgt i32 %3, 256
  br i1 %4, label %5, label %13

5:                                                ; preds = %1
  %6 = add nuw nsw i32 %3, 63
  %7 = lshr i32 %6, 3
  %8 = and i32 %7, 268435448
  %9 = zext nneg i32 %8 to i64
  %10 = tail call noundef ptr @_Z12AllocateHeapm8MEMFLAGSN17AllocFailStrategy13AllocFailEnumE(i64 noundef %9, i8 noundef zeroext 1, i32 noundef 0) #17
  %11 = ptrtoint ptr %10 to i64
  %12 = getelementptr inbounds i8, ptr %0, i64 24
  store i64 %11, ptr %12, align 8
  br label %13

13:                                               ; preds = %5, %1
  ret void
}